target datalayout = "e-m:e-p270:32:32-p271:32:32-p272:64:64-i64:64-i128:128-f80:128-n8:16:32:64-S128"
target triple = "x86_64-pc-linux-gnu"

%struct.lv_sqrt_res_t = type { i16, i16 }

; Function Attrs: nounwind uwtable
define void @lv_sqrt(i32 noundef %0, ptr noundef %1, i32 noundef %2) #0 {
  %4 = alloca i32, align 4
  %5 = alloca ptr, align 8
  %6 = alloca i32, align 4
  %7 = alloca i32, align 4
  %8 = alloca i32, align 4
  store i32 %0, ptr %4, align 4, !tbaa !7
  store ptr %1, ptr %5, align 8, !tbaa !14
  store i32 %2, ptr %6, align 4, !tbaa !7
  %9 = load i32, ptr %4, align 4, !tbaa !7
  %10 = shl i32 %9, 8
  store i32 %10, ptr %4, align 4, !tbaa !7
  call void @llvm.lifetime.start.p0(i64 4, ptr %7) #2
  store i32 0, ptr %7, align 4, !tbaa !7
  call void @llvm.lifetime.start.p0(i64 4, ptr %8) #2
  br label %11

11:                                               ; preds = %25, %3
  %12 = load i32, ptr %7, align 4, !tbaa !7
  %13 = load i32, ptr %6, align 4, !tbaa !7
  %14 = add i32 %12, %13
  store i32 %14, ptr %8, align 4, !tbaa !7
  %15 = load i32, ptr %8, align 4, !tbaa !7
  %16 = load i32, ptr %8, align 4, !tbaa !7
  %17 = mul i32 %15, %16
  %18 = load i32, ptr %4, align 4, !tbaa !7
  %19 = icmp ule i32 %17, %18
  br i1 %19, label %20, label %22

20:                                               ; preds = %11
  %21 = load i32, ptr %8, align 4, !tbaa !7
  store i32 %21, ptr %7, align 4, !tbaa !7
  br label %22

22:                                               ; preds = %20, %11
  %23 = load i32, ptr %6, align 4, !tbaa !7
  %24 = lshr i32 %23, 1
  store i32 %24, ptr %6, align 4, !tbaa !7
  br label %25

25:                                               ; preds = %22
  %26 = load i32, ptr %6, align 4, !tbaa !7
  %27 = icmp ne i32 %26, 0
  br i1 %27, label %11, label %28, !llvm.loop !16

28:                                               ; preds = %25
  %29 = load i32, ptr %7, align 4, !tbaa !7
  %30 = lshr i32 %29, 4
  %31 = trunc i32 %30 to i16
  %32 = load ptr, ptr %5, align 8, !tbaa !14
  %33 = getelementptr inbounds nuw %struct.lv_sqrt_res_t, ptr %32, i32 0, i32 0
  store i16 %31, ptr %33, align 2, !tbaa !17
  %34 = load i32, ptr %7, align 4, !tbaa !7
  %35 = and i32 %34, 15
  %36 = shl i32 %35, 4
  %37 = trunc i32 %36 to i16
  %38 = load ptr, ptr %5, align 8, !tbaa !14
  %39 = getelementptr inbounds nuw %struct.lv_sqrt_res_t, ptr %38, i32 0, i32 1
  store i16 %37, ptr %39, align 2, !tbaa !19
  call void @llvm.lifetime.end.p0(i64 4, ptr %8) #2
  call void @llvm.lifetime.end.p0(i64 4, ptr %7) #2
  ret void
}