; Function Attrs: nofree norecurse nosync nounwind memory(argmem: write) uwtable
define void @lv_sqrt(i32 noundef %0, ptr nocapture noundef writeonly %1, i32 noundef %2) local_unnamed_addr #2 {
  %4 = shl i32 %0, 8
  br label %5

5:                                                ; preds = %5, %3
  %.012 = phi i32 [ %2, %3 ], [ %8, %5 ]
  %.0 = phi i32 [ 0, %3 ], [ %spec.select, %5 ]
  %6 = add i32 %.0, %.012
  %7 = mul i32 %6, %6
  %.not = icmp ugt i32 %7, %4
  %spec.select = select i1 %.not, i32 %.0, i32 %6
  %8 = lshr i32 %.012, 1
  %.not14 = icmp ult i32 %.012, 2
  br i1 %.not14, label %9, label %5, !llvm.loop !10

9:                                                ; preds = %5
  %10 = lshr i32 %spec.select, 4
  %11 = trunc i32 %10 to i16
  store i16 %11, ptr %1, align 2, !tbaa !11
  %.1.tr = trunc i32 %spec.select to i16
  %12 = shl i16 %.1.tr, 4
  %13 = and i16 %12, 240
  %14 = getelementptr inbounds nuw i8, ptr %1, i64 2
  store i16 %13, ptr %14, align 2, !tbaa !13
  ret void
}